; Function Attrs: nounwind uwtable
define void @Bac_End(ptr noundef readonly captures(none) %0) local_unnamed_addr #0 {
  %2 = getelementptr i8, ptr %0, i64 528
  %.val = load ptr, ptr %2, align 8, !tbaa !3
  %.not.i = icmp eq ptr %.val, null
  br i1 %.not.i, label %Bac_AbcFreeMan.exit, label %3

3:                                                ; preds = %1
  tail call fastcc void @Bac_ManFree(ptr noundef nonnull %.val)
  br label %Bac_AbcFreeMan.exit

Bac_AbcFreeMan.exit:                              ; preds = %1, %3
  ret void
}